; ModuleID = 'source-C-CXX/14/2090.c'
source_filename = "source-C-CXX/14/2090.c"
target datalayout = "e-m:e-p270:32:32-p271:32:32-p272:64:64-i64:64-f80:128-n8:16:32:64-S128"
target triple = "x86_64-pc-linux-gnu"

@.str = private unnamed_addr constant [3 x i8] c"%d\00", align 1

; Function Attrs: nofree nounwind sspstrong uwtable
define dso_local i32 @main() local_unnamed_addr #0 {
  %1 = alloca i32, align 4
  %2 = alloca i32, align 4
  %3 = bitcast i32* %1 to i8*
  call void @llvm.lifetime.start.p0i8(i64 4, i8* nonnull %3) #4
  %4 = bitcast i32* %2 to i8*
  call void @llvm.lifetime.start.p0i8(i64 4, i8* nonnull %4) #4
  %5 = call i32 (i8*, ...) @__isoc99_scanf(i8* getelementptr inbounds ([3 x i8], [3 x i8]* @.str, i64 0, i64 0), i32* nonnull %1)
  %6 = load i32, i32* %1, align 4, !tbaa !5
  %7 = icmp slt i32 %6, 1
  br i1 %7, label %39, label %8

8:                                                ; preds = %0, %25
  %9 = phi i32 [ %26, %25 ], [ %6, %0 ]
  %10 = phi i32 [ %32, %25 ], [ 1, %0 ]
  %11 = phi i32 [ %28, %25 ], [ 0, %0 ]
  %12 = phi i32 [ %31, %25 ], [ 0, %0 ]
  %13 = icmp slt i32 %9, 1
  br i1 %13, label %25, label %14

14:                                               ; preds = %8, %14
  %15 = phi i32 [ %22, %14 ], [ 1, %8 ]
  %16 = phi i32 [ %21, %14 ], [ 0, %8 ]
  %17 = call i32 (i8*, ...) @__isoc99_scanf(i8* getelementptr inbounds ([3 x i8], [3 x i8]* @.str, i64 0, i64 0), i32* nonnull %2)
  %18 = load i32, i32* %2, align 4, !tbaa !5
  %19 = icmp eq i32 %18, 0
  %20 = zext i1 %19 to i32
  %21 = add nuw nsw i32 %16, %20
  %22 = add nuw nsw i32 %15, 1
  %23 = load i32, i32* %1, align 4, !tbaa !5
  %24 = icmp slt i32 %15, %23
  br i1 %24, label %14, label %25, !llvm.loop !9

25:                                               ; preds = %14, %8
  %26 = phi i32 [ %9, %8 ], [ %23, %14 ]
  %27 = phi i32 [ 0, %8 ], [ %21, %14 ]
  %28 = add nuw nsw i32 %27, %11
  %29 = icmp ne i32 %27, 0
  %30 = zext i1 %29 to i32
  %31 = add nuw nsw i32 %12, %30
  %32 = add nuw nsw i32 %10, 1
  %33 = icmp slt i32 %10, %26
  br i1 %33, label %8, label %34, !llvm.loop !11

34:                                               ; preds = %25
  %35 = icmp ult i32 %31, 3
  br i1 %35, label %39, label %36

36:                                               ; preds = %34
  %37 = shl nuw nsw i32 %31, 1
  %38 = icmp ugt i32 %28, %37
  br i1 %38, label %41, label %39

39:                                               ; preds = %0, %36, %34
  %40 = call i32 @putchar(i32 48)
  br label %47

41:                                               ; preds = %36
  %42 = sub nsw i32 %28, %37
  %43 = sdiv i32 %42, 2
  %44 = add nsw i32 %31, -2
  %45 = mul nsw i32 %43, %44
  %46 = call i32 (i8*, ...) @printf(i8* nonnull dereferenceable(1) getelementptr inbounds ([3 x i8], [3 x i8]* @.str, i64 0, i64 0), i32 %45)
  br label %47

47:                                               ; preds = %41, %39
  call void @llvm.lifetime.end.p0i8(i64 4, i8* nonnull %4) #4
  call void @llvm.lifetime.end.p0i8(i64 4, i8* nonnull %3) #4
  ret i32 0
}

; Function Attrs: argmemonly mustprogress nofree nosync nounwind willreturn
declare void @llvm.lifetime.start.p0i8(i64 immarg, i8* nocapture) #1

; Function Attrs: nofree nounwind
declare noundef i32 @__isoc99_scanf(i8* nocapture noundef readonly, ...) local_unnamed_addr #2

; Function Attrs: nofree nounwind
declare noundef i32 @printf(i8* nocapture noundef readonly, ...) local_unnamed_addr #2

; Function Attrs: argmemonly mustprogress nofree nosync nounwind willreturn
declare void @llvm.lifetime.end.p0i8(i64 immarg, i8* nocapture) #1

; Function Attrs: nofree nounwind
declare noundef i32 @putchar(i32 noundef) local_unnamed_addr #3


!llvm.module.flags = !{!0, !1, !2, !3}
!llvm.ident = !{!4}

!0 = !{i32 1, !"wchar_size", i32 4}
!1 = !{i32 7, !"PIC Level", i32 2}
!2 = !{i32 7, !"PIE Level", i32 2}
!3 = !{i32 7, !"uwtable", i32 1}
!4 = !{!"clang version 13.0.0"}
!5 = !{!6, !6, i64 0}
!6 = !{!"int", !7, i64 0}
!7 = !{!"omnipotent char", !8, i64 0}
!8 = !{!"Simple C/C++ TBAA"}
!9 = distinct !{!9, !10}
!10 = !{!"llvm.loop.mustprogress"}
!11 = distinct !{!11, !10, !12}
!12 = !{!"llvm.loop.unswitch.partial.disable"}
